((dp1
S'office'
p2
I0
sS'hallway'
p3
I16
sS'is'
p4
I2
sS'bedroom'
p5
I3
sS'go'
p6
I4
sS'</s>'
p7
I5
sS'bathroom'
p8
I6
sS'from'
p9
I7
sS'how'
p10
I8
sS'<s>'
p11
I9
sS'west'
p12
I10
sS'.'
I11
sS'to'
p13
I12
sS'you'
p14
I13
sS'east'
p15
I14
sS'?'
I15
sS'do'
p16
I1
sS'north'
p17
I17
sS'garden'
p18
I18
sS'kitchen'
p19
I19
sS'of'
p20
I20
sS'the'
p21
I21
sS'south'
p22
I22
sS'<unk>'
p23
I23
s(dp24
S'w,s'
p25
I0
sS'e,n'
p26
I1
sS'n,w'
p27
I2
sS's,s'
p28
I10
sS's,w'
p29
I3
sS'e,e'
p30
I4
sS'n,e'
p31
I5
sS'w,n'
p32
I7
sS's,e'
p33
I9
sS'e,s'
p34
I8
sS'w,w'
p35
I6
sS'n,n'
p36
I11
st.